target datalayout = "e-m:e-p270:32:32-p271:32:32-p272:64:64-i64:64-i128:128-f80:128-n8:16:32:64-S128"
target triple = "x86_64-pc-linux-gnu"

%struct.evp_test_st = type { %struct.stanza_st, ptr, i32, ptr, ptr, ptr, ptr, ptr, ptr, i32 }
%struct.stanza_st = type { ptr, ptr, i32, i32, i32, i32, i32, i32, [150 x %struct.pair_st], ptr, [32768 x i8] }
%struct.pair_st = type { ptr, ptr }
%struct.mac_data_st = type { ptr, ptr, i32, ptr, ptr, i64, ptr, i64, ptr, i64, ptr, i64, ptr, i64, ptr, i64, i32, i32, ptr, i32, i32 }

@.str.29 = private unnamed_addr constant [27 x i8] c"../openssl/test/evp_test.c\00", align 1
@.str.140 = private unnamed_addr constant [4 x i8] c"Key\00", align 1
@.str.142 = private unnamed_addr constant [3 x i8] c"IV\00", align 1
@.str.216 = private unnamed_addr constant [6 x i8] c"Input\00", align 1
@.str.217 = private unnamed_addr constant [7 x i8] c"Output\00", align 1
@.str.221 = private unnamed_addr constant [4 x i8] c"XOF\00", align 1
@.str.222 = private unnamed_addr constant [11 x i8] c"OutputSize\00", align 1
@.str.252 = private unnamed_addr constant [5 x i8] c"Ctrl\00", align 1
@.str.365 = private unnamed_addr constant [7 x i8] c"Custom\00", align 1
@.str.366 = private unnamed_addr constant [5 x i8] c"Salt\00", align 1
@.str.367 = private unnamed_addr constant [10 x i8] c"Algorithm\00", align 1
@.str.368 = private unnamed_addr constant [9 x i8] c"NoReinit\00", align 1
@.str.369 = private unnamed_addr constant [10 x i8] c"BlockSize\00", align 1

; Function Attrs: inlinehint nounwind willreturn memory(read) uwtable
define available_externally i32 @atoi(ptr noundef nonnull %0) #4 {
  %2 = alloca ptr, align 8
  store ptr %0, ptr %2, align 8, !tbaa !4
  %3 = load ptr, ptr %2, align 8, !tbaa !4
  %4 = call i64 @strtol(ptr noundef %3, ptr noundef null, i32 noundef 10) #10
  %5 = trunc i64 %4 to i32
  ret i32 %5
}

; Function Attrs: nounwind uwtable
define internal i32 @mac_test_parse(ptr noundef %0, ptr noundef %1, ptr noundef %2) #0 {
  %4 = alloca i32, align 4
  %5 = alloca ptr, align 8
  %6 = alloca ptr, align 8
  %7 = alloca ptr, align 8
  %8 = alloca ptr, align 8
  %9 = alloca i32, align 4
  store ptr %0, ptr %5, align 8, !tbaa !15
  store ptr %1, ptr %6, align 8, !tbaa !4
  store ptr %2, ptr %7, align 8, !tbaa !4
  call void @llvm.lifetime.start.p0(i64 8, ptr %8) #10
  %10 = load ptr, ptr %5, align 8, !tbaa !15
  %11 = getelementptr inbounds nuw %struct.evp_test_st, ptr %10, i32 0, i32 8
  %12 = load ptr, ptr %11, align 8, !tbaa !66
  store ptr %12, ptr %8, align 8, !tbaa !298
  %13 = load ptr, ptr %6, align 8, !tbaa !4
  %14 = call i32 @strcmp(ptr noundef %13, ptr noundef @.str.140) #11
  %15 = icmp eq i32 %14, 0
  br i1 %15, label %16, label %23

16:                                               ; preds = %3
  %17 = load ptr, ptr %7, align 8, !tbaa !4
  %18 = load ptr, ptr %8, align 8, !tbaa !298
  %19 = getelementptr inbounds nuw %struct.mac_data_st, ptr %18, i32 0, i32 4
  %20 = load ptr, ptr %8, align 8, !tbaa !298
  %21 = getelementptr inbounds nuw %struct.mac_data_st, ptr %20, i32 0, i32 5
  %22 = call i32 @parse_bin(ptr noundef %17, ptr noundef %19, ptr noundef %21)
  store i32 %22, ptr %4, align 4
  store i32 1, ptr %9, align 4
  br label %148

23:                                               ; preds = %3
  %24 = load ptr, ptr %6, align 8, !tbaa !4
  %25 = call i32 @strcmp(ptr noundef %24, ptr noundef @.str.142) #11
  %26 = icmp eq i32 %25, 0
  br i1 %26, label %27, label %34

27:                                               ; preds = %23
  %28 = load ptr, ptr %7, align 8, !tbaa !4
  %29 = load ptr, ptr %8, align 8, !tbaa !298
  %30 = getelementptr inbounds nuw %struct.mac_data_st, ptr %29, i32 0, i32 6
  %31 = load ptr, ptr %8, align 8, !tbaa !298
  %32 = getelementptr inbounds nuw %struct.mac_data_st, ptr %31, i32 0, i32 7
  %33 = call i32 @parse_bin(ptr noundef %28, ptr noundef %30, ptr noundef %32)
  store i32 %33, ptr %4, align 4
  store i32 1, ptr %9, align 4
  br label %148

34:                                               ; preds = %23
  %35 = load ptr, ptr %6, align 8, !tbaa !4
  %36 = call i32 @strcmp(ptr noundef %35, ptr noundef @.str.365) #11
  %37 = icmp eq i32 %36, 0
  br i1 %37, label %38, label %45

38:                                               ; preds = %34
  %39 = load ptr, ptr %7, align 8, !tbaa !4
  %40 = load ptr, ptr %8, align 8, !tbaa !298
  %41 = getelementptr inbounds nuw %struct.mac_data_st, ptr %40, i32 0, i32 12
  %42 = load ptr, ptr %8, align 8, !tbaa !298
  %43 = getelementptr inbounds nuw %struct.mac_data_st, ptr %42, i32 0, i32 13
  %44 = call i32 @parse_bin(ptr noundef %39, ptr noundef %41, ptr noundef %43)
  store i32 %44, ptr %4, align 4
  store i32 1, ptr %9, align 4
  br label %148

45:                                               ; preds = %34
  %46 = load ptr, ptr %6, align 8, !tbaa !4
  %47 = call i32 @strcmp(ptr noundef %46, ptr noundef @.str.366) #11
  %48 = icmp eq i32 %47, 0
  br i1 %48, label %49, label %56

49:                                               ; preds = %45
  %50 = load ptr, ptr %7, align 8, !tbaa !4
  %51 = load ptr, ptr %8, align 8, !tbaa !298
  %52 = getelementptr inbounds nuw %struct.mac_data_st, ptr %51, i32 0, i32 14
  %53 = load ptr, ptr %8, align 8, !tbaa !298
  %54 = getelementptr inbounds nuw %struct.mac_data_st, ptr %53, i32 0, i32 15
  %55 = call i32 @parse_bin(ptr noundef %50, ptr noundef %52, ptr noundef %54)
  store i32 %55, ptr %4, align 4
  store i32 1, ptr %9, align 4
  br label %148

56:                                               ; preds = %45
  %57 = load ptr, ptr %6, align 8, !tbaa !4
  %58 = call i32 @strcmp(ptr noundef %57, ptr noundef @.str.367) #11
  %59 = icmp eq i32 %58, 0
  br i1 %59, label %60, label %71

60:                                               ; preds = %56
  %61 = load ptr, ptr %7, align 8, !tbaa !4
  %62 = call noalias ptr @CRYPTO_strdup(ptr noundef %61, ptr noundef @.str.29, i32 noundef 1688)
  %63 = load ptr, ptr %8, align 8, !tbaa !298
  %64 = getelementptr inbounds nuw %struct.mac_data_st, ptr %63, i32 0, i32 3
  store ptr %62, ptr %64, align 8, !tbaa !307
  %65 = load ptr, ptr %8, align 8, !tbaa !298
  %66 = getelementptr inbounds nuw %struct.mac_data_st, ptr %65, i32 0, i32 3
  %67 = load ptr, ptr %66, align 8, !tbaa !307
  %68 = icmp eq ptr %67, null
  br i1 %68, label %69, label %70

69:                                               ; preds = %60
  store i32 -1, ptr %4, align 4
  store i32 1, ptr %9, align 4
  br label %148

70:                                               ; preds = %60
  store i32 1, ptr %4, align 4
  store i32 1, ptr %9, align 4
  br label %148

71:                                               ; preds = %56
  %72 = load ptr, ptr %6, align 8, !tbaa !4
  %73 = call i32 @strcmp(ptr noundef %72, ptr noundef @.str.216) #11
  %74 = icmp eq i32 %73, 0
  br i1 %74, label %75, label %82

75:                                               ; preds = %71
  %76 = load ptr, ptr %7, align 8, !tbaa !4
  %77 = load ptr, ptr %8, align 8, !tbaa !298
  %78 = getelementptr inbounds nuw %struct.mac_data_st, ptr %77, i32 0, i32 8
  %79 = load ptr, ptr %8, align 8, !tbaa !298
  %80 = getelementptr inbounds nuw %struct.mac_data_st, ptr %79, i32 0, i32 9
  %81 = call i32 @parse_bin(ptr noundef %76, ptr noundef %78, ptr noundef %80)
  store i32 %81, ptr %4, align 4
  store i32 1, ptr %9, align 4
  br label %148

82:                                               ; preds = %71
  %83 = load ptr, ptr %6, align 8, !tbaa !4
  %84 = call i32 @strcmp(ptr noundef %83, ptr noundef @.str.217) #11
  %85 = icmp eq i32 %84, 0
  br i1 %85, label %86, label %93

86:                                               ; preds = %82
  %87 = load ptr, ptr %7, align 8, !tbaa !4
  %88 = load ptr, ptr %8, align 8, !tbaa !298
  %89 = getelementptr inbounds nuw %struct.mac_data_st, ptr %88, i32 0, i32 10
  %90 = load ptr, ptr %8, align 8, !tbaa !298
  %91 = getelementptr inbounds nuw %struct.mac_data_st, ptr %90, i32 0, i32 11
  %92 = call i32 @parse_bin(ptr noundef %87, ptr noundef %89, ptr noundef %91)
  store i32 %92, ptr %4, align 4
  store i32 1, ptr %9, align 4
  br label %148

93:                                               ; preds = %82
  %94 = load ptr, ptr %6, align 8, !tbaa !4
  %95 = call i32 @strcmp(ptr noundef %94, ptr noundef @.str.221) #11
  %96 = icmp eq i32 %95, 0
  br i1 %96, label %97, label %100

97:                                               ; preds = %93
  %98 = load ptr, ptr %8, align 8, !tbaa !298
  %99 = getelementptr inbounds nuw %struct.mac_data_st, ptr %98, i32 0, i32 16
  store i32 1, ptr %99, align 8, !tbaa !314
  store i32 1, ptr %4, align 4
  store i32 1, ptr %9, align 4
  br label %148

100:                                              ; preds = %93
  %101 = load ptr, ptr %6, align 8, !tbaa !4
  %102 = call i32 @strcmp(ptr noundef %101, ptr noundef @.str.368) #11
  %103 = icmp eq i32 %102, 0
  br i1 %103, label %104, label %107

104:                                              ; preds = %100
  %105 = load ptr, ptr %8, align 8, !tbaa !298
  %106 = getelementptr inbounds nuw %struct.mac_data_st, ptr %105, i32 0, i32 17
  store i32 1, ptr %106, align 4, !tbaa !315
  store i32 1, ptr %4, align 4
  store i32 1, ptr %9, align 4
  br label %148

107:                                              ; preds = %100
  %108 = load ptr, ptr %6, align 8, !tbaa !4
  %109 = call i32 @strcmp(ptr noundef %108, ptr noundef @.str.252) #11
  %110 = icmp eq i32 %109, 0
  br i1 %110, label %111, label %117

111:                                              ; preds = %107
  %112 = load ptr, ptr %8, align 8, !tbaa !298
  %113 = getelementptr inbounds nuw %struct.mac_data_st, ptr %112, i32 0, i32 18
  %114 = load ptr, ptr %113, align 8, !tbaa !304
  %115 = load ptr, ptr %7, align 8, !tbaa !4
  %116 = call i32 @ctrladd(ptr noundef %114, ptr noundef %115)
  store i32 %116, ptr %4, align 4
  store i32 1, ptr %9, align 4
  br label %148

117:                                              ; preds = %107
  %118 = load ptr, ptr %6, align 8, !tbaa !4
  %119 = call i32 @strcmp(ptr noundef %118, ptr noundef @.str.222) #11
  %120 = icmp eq i32 %119, 0
  br i1 %120, label %121, label %132

121:                                              ; preds = %117
  %122 = load ptr, ptr %7, align 8, !tbaa !4
  %123 = call i32 @atoi(ptr noundef %122) #11
  %124 = load ptr, ptr %8, align 8, !tbaa !298
  %125 = getelementptr inbounds nuw %struct.mac_data_st, ptr %124, i32 0, i32 19
  store i32 %123, ptr %125, align 8, !tbaa !306
  %126 = load ptr, ptr %8, align 8, !tbaa !298
  %127 = getelementptr inbounds nuw %struct.mac_data_st, ptr %126, i32 0, i32 19
  %128 = load i32, ptr %127, align 8, !tbaa !306
  %129 = icmp slt i32 %128, 0
  br i1 %129, label %130, label %131

130:                                              ; preds = %121
  store i32 -1, ptr %4, align 4
  store i32 1, ptr %9, align 4
  br label %148

131:                                              ; preds = %121
  store i32 1, ptr %4, align 4
  store i32 1, ptr %9, align 4
  br label %148

132:                                              ; preds = %117
  %133 = load ptr, ptr %6, align 8, !tbaa !4
  %134 = call i32 @strcmp(ptr noundef %133, ptr noundef @.str.369) #11
  %135 = icmp eq i32 %134, 0
  br i1 %135, label %136, label %147

136:                                              ; preds = %132
  %137 = load ptr, ptr %7, align 8, !tbaa !4
  %138 = call i32 @atoi(ptr noundef %137) #11
  %139 = load ptr, ptr %8, align 8, !tbaa !298
  %140 = getelementptr inbounds nuw %struct.mac_data_st, ptr %139, i32 0, i32 20
  store i32 %138, ptr %140, align 4, !tbaa !305
  %141 = load ptr, ptr %8, align 8, !tbaa !298
  %142 = getelementptr inbounds nuw %struct.mac_data_st, ptr %141, i32 0, i32 20
  %143 = load i32, ptr %142, align 4, !tbaa !305
  %144 = icmp slt i32 %143, 0
  br i1 %144, label %145, label %146

145:                                              ; preds = %136
  store i32 -1, ptr %4, align 4
  store i32 1, ptr %9, align 4
  br label %148

146:                                              ; preds = %136
  store i32 1, ptr %4, align 4
  store i32 1, ptr %9, align 4
  br label %148

147:                                              ; preds = %132
  store i32 0, ptr %4, align 4
  store i32 1, ptr %9, align 4
  br label %148

148:                                              ; preds = %147, %146, %145, %131, %130, %111, %104, %97, %86, %75, %70, %69, %49, %38, %27, %16
  call void @llvm.lifetime.end.p0(i64 8, ptr %8) #10
  %149 = load i32, ptr %4, align 4
  ret i32 %149
}