; Function Attrs: nounwind uwtable
define internal range(i32 -1, 2) i32 @mac_test_parse(ptr noundef readonly captures(none) %0, ptr noundef readonly captures(none) %1, ptr noundef %2) #1 {
  %4 = getelementptr inbounds nuw i8, ptr %0, i64 35272
  %5 = load ptr, ptr %4, align 8, !tbaa !20
  %6 = tail call i32 @strcmp(ptr noundef nonnull dereferenceable(1) %1, ptr noundef nonnull dereferenceable(4) @.str.140) #11
  %7 = icmp eq i32 %6, 0
  br i1 %7, label %8, label %sub_0

8:                                                ; preds = %3
  %9 = getelementptr inbounds nuw i8, ptr %5, i64 32
  %10 = getelementptr inbounds nuw i8, ptr %5, i64 40
  %11 = tail call fastcc i32 @parse_bin(ptr noundef %2, ptr noundef nonnull %9, ptr noundef nonnull %10)
  br label %87

sub_0:                                            ; preds = %3
  %12 = load i8, ptr %1, align 1
  %.not = icmp eq i8 %12, 73
  br i1 %.not, label %sub_1, label %.tail.thread

sub_1:                                            ; preds = %sub_0
  %13 = getelementptr inbounds nuw i8, ptr %1, i64 1
  %14 = load i8, ptr %13, align 1
  %.not47 = icmp eq i8 %14, 86
  br i1 %.not47, label %.tail, label %.tail.thread

.tail:                                            ; preds = %sub_1
  %15 = getelementptr inbounds nuw i8, ptr %1, i64 2
  %16 = load i8, ptr %15, align 1
  %17 = icmp eq i8 %16, 0
  br i1 %17, label %18, label %.tail.thread

18:                                               ; preds = %.tail
  %19 = getelementptr inbounds nuw i8, ptr %5, i64 48
  %20 = getelementptr inbounds nuw i8, ptr %5, i64 56
  %21 = tail call fastcc i32 @parse_bin(ptr noundef %2, ptr noundef nonnull %19, ptr noundef nonnull %20)
  br label %87

.tail.thread:                                     ; preds = %sub_1, %sub_0, %.tail
  %22 = tail call i32 @strcmp(ptr noundef nonnull dereferenceable(1) %1, ptr noundef nonnull dereferenceable(7) @.str.365) #11
  %23 = icmp eq i32 %22, 0
  br i1 %23, label %24, label %28

24:                                               ; preds = %.tail.thread
  %25 = getelementptr inbounds nuw i8, ptr %5, i64 96
  %26 = getelementptr inbounds nuw i8, ptr %5, i64 104
  %27 = tail call fastcc i32 @parse_bin(ptr noundef %2, ptr noundef nonnull %25, ptr noundef nonnull %26)
  br label %87

28:                                               ; preds = %.tail.thread
  %29 = tail call i32 @strcmp(ptr noundef nonnull dereferenceable(1) %1, ptr noundef nonnull dereferenceable(5) @.str.366) #11
  %30 = icmp eq i32 %29, 0
  br i1 %30, label %31, label %35

31:                                               ; preds = %28
  %32 = getelementptr inbounds nuw i8, ptr %5, i64 112
  %33 = getelementptr inbounds nuw i8, ptr %5, i64 120
  %34 = tail call fastcc i32 @parse_bin(ptr noundef %2, ptr noundef nonnull %32, ptr noundef nonnull %33)
  br label %87

35:                                               ; preds = %28
  %36 = tail call i32 @strcmp(ptr noundef nonnull dereferenceable(1) %1, ptr noundef nonnull dereferenceable(10) @.str.367) #11
  %37 = icmp eq i32 %36, 0
  br i1 %37, label %38, label %42

38:                                               ; preds = %35
  %39 = tail call noalias ptr @CRYPTO_strdup(ptr noundef %2, ptr noundef nonnull @.str.29, i32 noundef 1688) #10
  %40 = getelementptr inbounds nuw i8, ptr %5, i64 24
  store ptr %39, ptr %40, align 8, !tbaa !248
  %41 = icmp eq ptr %39, null
  %. = select i1 %41, i32 -1, i32 1
  br label %87

42:                                               ; preds = %35
  %43 = tail call i32 @strcmp(ptr noundef nonnull dereferenceable(1) %1, ptr noundef nonnull dereferenceable(6) @.str.216) #11
  %44 = icmp eq i32 %43, 0
  br i1 %44, label %45, label %49

45:                                               ; preds = %42
  %46 = getelementptr inbounds nuw i8, ptr %5, i64 64
  %47 = getelementptr inbounds nuw i8, ptr %5, i64 72
  %48 = tail call fastcc i32 @parse_bin(ptr noundef %2, ptr noundef nonnull %46, ptr noundef nonnull %47)
  br label %87

49:                                               ; preds = %42
  %50 = tail call i32 @strcmp(ptr noundef nonnull dereferenceable(1) %1, ptr noundef nonnull dereferenceable(7) @.str.217) #11
  %51 = icmp eq i32 %50, 0
  br i1 %51, label %52, label %56

52:                                               ; preds = %49
  %53 = getelementptr inbounds nuw i8, ptr %5, i64 80
  %54 = getelementptr inbounds nuw i8, ptr %5, i64 88
  %55 = tail call fastcc i32 @parse_bin(ptr noundef %2, ptr noundef nonnull %53, ptr noundef nonnull %54)
  br label %87

56:                                               ; preds = %49
  %57 = tail call i32 @strcmp(ptr noundef nonnull dereferenceable(1) %1, ptr noundef nonnull dereferenceable(4) @.str.221) #11
  %58 = icmp eq i32 %57, 0
  br i1 %58, label %59, label %61

59:                                               ; preds = %56
  %60 = getelementptr inbounds nuw i8, ptr %5, i64 128
  store i32 1, ptr %60, align 8, !tbaa !255
  br label %87

61:                                               ; preds = %56
  %62 = tail call i32 @strcmp(ptr noundef nonnull dereferenceable(1) %1, ptr noundef nonnull dereferenceable(9) @.str.368) #11
  %63 = icmp eq i32 %62, 0
  br i1 %63, label %64, label %66

64:                                               ; preds = %61
  %65 = getelementptr inbounds nuw i8, ptr %5, i64 132
  store i32 1, ptr %65, align 4, !tbaa !256
  br label %87

66:                                               ; preds = %61
  %67 = tail call i32 @strcmp(ptr noundef nonnull dereferenceable(1) %1, ptr noundef nonnull dereferenceable(5) @.str.252) #11
  %68 = icmp eq i32 %67, 0
  br i1 %68, label %69, label %73

69:                                               ; preds = %66
  %70 = getelementptr inbounds nuw i8, ptr %5, i64 136
  %71 = load ptr, ptr %70, align 8, !tbaa !245
  %72 = tail call fastcc i32 @ctrladd(ptr noundef %71, ptr noundef %2)
  br label %87

73:                                               ; preds = %66
  %74 = tail call i32 @strcmp(ptr noundef nonnull dereferenceable(1) %1, ptr noundef nonnull dereferenceable(11) @.str.222) #11
  %75 = icmp eq i32 %74, 0
  br i1 %75, label %76, label %80

76:                                               ; preds = %73
  %77 = tail call i64 @strtol(ptr noundef nonnull captures(none) %2, ptr noundef null, i32 noundef 10) #10
  %78 = trunc i64 %77 to i32
  %79 = getelementptr inbounds nuw i8, ptr %5, i64 144
  store i32 %78, ptr %79, align 8, !tbaa !247
  %.inv46 = icmp sgt i32 %78, -1
  %.44 = select i1 %.inv46, i32 1, i32 -1
  br label %87

80:                                               ; preds = %73
  %81 = tail call i32 @strcmp(ptr noundef nonnull dereferenceable(1) %1, ptr noundef nonnull dereferenceable(10) @.str.369) #11
  %82 = icmp eq i32 %81, 0
  br i1 %82, label %83, label %87

83:                                               ; preds = %80
  %84 = tail call i64 @strtol(ptr noundef nonnull captures(none) %2, ptr noundef null, i32 noundef 10) #10
  %85 = trunc i64 %84 to i32
  %86 = getelementptr inbounds nuw i8, ptr %5, i64 148
  store i32 %85, ptr %86, align 4, !tbaa !246
  %.inv = icmp sgt i32 %85, -1
  %.45 = select i1 %.inv, i32 1, i32 -1
  br label %87

87:                                               ; preds = %80, %83, %76, %38, %69, %64, %59, %52, %45, %31, %24, %18, %8
  %.0 = phi i32 [ %11, %8 ], [ %21, %18 ], [ %27, %24 ], [ %34, %31 ], [ %48, %45 ], [ %55, %52 ], [ 1, %59 ], [ 1, %64 ], [ %72, %69 ], [ %., %38 ], [ %.44, %76 ], [ %.45, %83 ], [ 0, %80 ]
  ret i32 %.0
}